; Function Attrs: nounwind uwtable
define dso_local void @conn_close_idle(ptr noundef %0) local_unnamed_addr #1 {
  %2 = load i32, ptr getelementptr inbounds nuw (i8, ptr @settings, i64 244), align 4, !tbaa !43
  %3 = icmp sgt i32 %2, 0
  br i1 %3, label %4, label %54

4:                                                ; preds = %1
  %5 = load volatile i32, ptr @current_time, align 4, !tbaa !8
  %6 = getelementptr inbounds nuw i8, ptr %0, i64 40
  %7 = load i32, ptr %6, align 8, !tbaa !47
  %8 = sub i32 %5, %7
  %9 = icmp ugt i32 %8, %2
  br i1 %9, label %10, label %54

10:                                               ; preds = %4
  %11 = getelementptr inbounds nuw i8, ptr %0, i64 32
  %12 = load i32, ptr %11, align 8, !tbaa !48
  switch i32 %12, label %13 [
    i32 1, label %21
    i32 3, label %21
  ]

13:                                               ; preds = %10
  %14 = load i32, ptr getelementptr inbounds nuw (i8, ptr @settings, i64 32), align 8, !tbaa !49
  %15 = icmp sgt i32 %14, 1
  br i1 %15, label %16, label %54

16:                                               ; preds = %13
  %17 = load ptr, ptr @stderr, align 8, !tbaa !50
  %18 = getelementptr inbounds nuw i8, ptr %0, i64 8
  %19 = load i32, ptr %18, align 8, !tbaa !52
  %20 = tail call i32 (ptr, ptr, ...) @fprintf(ptr noundef %17, ptr noundef nonnull @.str, i32 noundef %19) #36
  br label %54

21:                                               ; preds = %10, %10
  %22 = load i32, ptr getelementptr inbounds nuw (i8, ptr @settings, i64 32), align 8, !tbaa !49
  %23 = icmp sgt i32 %22, 1
  br i1 %23, label %24, label %29

24:                                               ; preds = %21
  %25 = load ptr, ptr @stderr, align 8, !tbaa !50
  %26 = getelementptr inbounds nuw i8, ptr %0, i64 8
  %27 = load i32, ptr %26, align 8, !tbaa !52
  %28 = tail call i32 (ptr, ptr, ...) @fprintf(ptr noundef %25, ptr noundef nonnull @.str.1, i32 noundef %27) #36
  br label %29

29:                                               ; preds = %24, %21
  %30 = getelementptr inbounds nuw i8, ptr %0, i64 400
  %31 = load ptr, ptr %30, align 8, !tbaa !30
  %32 = getelementptr inbounds nuw i8, ptr %31, i64 360
  %33 = tail call i32 @pthread_mutex_lock(ptr noundef nonnull %32) #34
  %34 = load ptr, ptr %30, align 8, !tbaa !30
  %35 = getelementptr inbounds nuw i8, ptr %34, i64 536
  %36 = load i64, ptr %35, align 8, !tbaa !53
  %37 = add i64 %36, 1
  store i64 %37, ptr %35, align 8, !tbaa !53
  %38 = getelementptr inbounds nuw i8, ptr %34, i64 360
  %39 = tail call i32 @pthread_mutex_unlock(ptr noundef nonnull %38) #34
  %40 = getelementptr inbounds nuw i8, ptr %0, i64 268
  store i32 2, ptr %40, align 4, !tbaa !54
  %41 = load i32, ptr %11, align 8, !tbaa !48
  %.not.i = icmp eq i32 %41, 8
  br i1 %.not.i, label %conn_set_state.exit, label %42

42:                                               ; preds = %29
  %43 = load i32, ptr getelementptr inbounds nuw (i8, ptr @settings, i64 32), align 8, !tbaa !49
  %44 = icmp sgt i32 %43, 2
  br i1 %44, label %45, label %53

45:                                               ; preds = %42
  %46 = load ptr, ptr @stderr, align 8, !tbaa !50
  %47 = getelementptr inbounds nuw i8, ptr %0, i64 8
  %48 = load i32, ptr %47, align 8, !tbaa !52
  %49 = zext i32 %41 to i64
  %50 = getelementptr inbounds nuw [15 x ptr], ptr @__const.state_text.statenames, i64 0, i64 %49
  %51 = load ptr, ptr %50, align 8, !tbaa !55
  %52 = tail call i32 (ptr, ptr, ...) @fprintf(ptr noundef %46, ptr noundef nonnull @.str.15, i32 noundef %48, ptr noundef %51, ptr noundef nonnull @.str.375) #36
  br label %53

53:                                               ; preds = %45, %42
  store i32 8, ptr %11, align 8, !tbaa !48
  br label %conn_set_state.exit

conn_set_state.exit:                              ; preds = %29, %53
  tail call fastcc void @drive_machine(ptr noundef nonnull %0)
  br label %54

54:                                               ; preds = %13, %16, %conn_set_state.exit, %4, %1
  ret void
}